target datalayout = "e-m:e-p270:32:32-p271:32:32-p272:64:64-i64:64-i128:128-f80:128-n8:16:32:64-S128"
target triple = "x86_64-pc-linux-gnu"

%"class.cv::Mat" = type { i32, i32, i32, i32, ptr, ptr, ptr, ptr, ptr, ptr, %"struct.cv::MatSize", %"struct.cv::MatStep" }
%"struct.cv::MatSize" = type { ptr }
%"struct.cv::MatStep" = type { ptr, [2 x i64] }
%"class.cv::ccm::Operations" = type { ptr, %"class.std::vector" }
%"class.std::vector" = type { %"struct.std::_Vector_base" }
%"struct.std::_Vector_base" = type { %"struct.std::_Vector_base<cv::ccm::Operation, std::allocator<cv::ccm::Operation>>::_Vector_impl" }
%"struct.std::_Vector_base<cv::ccm::Operation, std::allocator<cv::ccm::Operation>>::_Vector_impl" = type { %"struct.std::_Vector_base<cv::ccm::Operation, std::allocator<cv::ccm::Operation>>::_Vector_impl_data" }
%"struct.std::_Vector_base<cv::ccm::Operation, std::allocator<cv::ccm::Operation>>::_Vector_impl_data" = type { ptr, ptr, ptr }
%"class.cv::ccm::ColorSpace" = type { ptr, %"class.cv::ccm::IO", %"class.std::__cxx11::basic_string", i8, %"class.cv::ccm::Operations", %"class.cv::ccm::Operations", ptr, ptr }
%"class.cv::ccm::IO" = type { ptr, %"class.std::__cxx11::basic_string", %"class.std::__cxx11::basic_string" }
%"class.std::__cxx11::basic_string" = type { %"struct.std::__cxx11::basic_string<char>::_Alloc_hider", i64, %union.anon }
%"struct.std::__cxx11::basic_string<char>::_Alloc_hider" = type { ptr }
%union.anon = type { i64, [8 x i8] }
%"class.cv::ccm::RGBBase_" = type { %"class.cv::ccm::ColorSpace", double, double, double, double, double, double, %"class.cv::Mat", %"class.cv::Mat" }
%"class.cv::ccm::AdobeRGBBase_" = type { %"class.cv::ccm::RGBBase_", double }

; Function Attrs: mustprogress uwtable
define hidden void @_ZNK2cv3ccm13AdobeRGBBase_9fromLFuncERNS_3MatES2_(ptr dead_on_unwind noalias writable sret(%"class.cv::Mat") align 8 %0, ptr noundef nonnull align 8 dereferenceable(448) %1, ptr noundef nonnull align 8 dereferenceable(96) %2, ptr noundef %3) unnamed_addr #4 align 2 personality ptr @__gxx_personality_v0 {
  %5 = alloca ptr, align 8
  %6 = alloca ptr, align 8
  %7 = alloca ptr, align 8
  %8 = alloca ptr, align 8
  %9 = alloca double, align 8
  %10 = alloca %"class.cv::Mat", align 8
  %11 = alloca ptr, align 8
  %12 = alloca i32, align 4
  store ptr %0, ptr %5, align 8
  store ptr %1, ptr %6, align 8, !tbaa !137
  store ptr %2, ptr %7, align 8, !tbaa !85
  store ptr %3, ptr %8, align 8, !tbaa !85
  %13 = load ptr, ptr %6, align 8
  %14 = load ptr, ptr %7, align 8, !tbaa !85
  call void @llvm.lifetime.start.p0(i64 8, ptr %9) #3
  %15 = getelementptr inbounds nuw %"class.cv::ccm::AdobeRGBBase_", ptr %13, i32 0, i32 1
  %16 = load double, ptr %15, align 8, !tbaa !139
  %17 = fdiv double 1.000000e+00, %16
  store double %17, ptr %9, align 8, !tbaa !65
  call void @_ZN2cv3MatC1ERKS0_(ptr noundef nonnull align 8 dereferenceable(96) %10, ptr noundef nonnull align 8 dereferenceable(96) %3)
  invoke void @_ZN2cv3ccm15gammaCorrectionERKNS_3MatERKdS1_(ptr dead_on_unwind writable sret(%"class.cv::Mat") align 8 %0, ptr noundef nonnull align 8 dereferenceable(96) %14, ptr noundef nonnull align 8 dereferenceable(8) %9, ptr noundef %10)
          to label %18 unwind label %19

18:                                               ; preds = %4
  call void @_ZN2cv3MatD1Ev(ptr noundef nonnull align 8 dereferenceable(96) %10) #3
  call void @llvm.lifetime.end.p0(i64 8, ptr %9) #3
  ret void

19:                                               ; preds = %4
  %20 = landingpad { ptr, i32 }
          cleanup
  %21 = extractvalue { ptr, i32 } %20, 0
  store ptr %21, ptr %11, align 8
  %22 = extractvalue { ptr, i32 } %20, 1
  store i32 %22, ptr %12, align 4
  call void @_ZN2cv3MatD1Ev(ptr noundef nonnull align 8 dereferenceable(96) %10) #3
  call void @llvm.lifetime.end.p0(i64 8, ptr %9) #3
  br label %23

23:                                               ; preds = %19
  %24 = load ptr, ptr %11, align 8
  %25 = load i32, ptr %12, align 4
  %26 = insertvalue { ptr, i32 } poison, ptr %24, 0
  %27 = insertvalue { ptr, i32 } %26, i32 %25, 1
  resume { ptr, i32 } %27
}