; Function Attrs: mustprogress uwtable
define hidden void @_ZNK2cv3ccm13AdobeRGBBase_9fromLFuncERNS_3MatES2_(ptr dead_on_unwind noalias writable sret(%"class.cv::Mat") align 8 %0, ptr noundef nonnull readonly align 8 captures(none) dereferenceable(448) %1, ptr noundef nonnull align 8 dereferenceable(96) %2, ptr noundef nonnull %3) unnamed_addr #3 align 2 personality ptr @__gxx_personality_v0 {
  %5 = alloca double, align 8
  %6 = alloca %"class.cv::Mat", align 8
  call void @llvm.lifetime.start.p0(i64 8, ptr nonnull %5) #35
  %7 = getelementptr inbounds nuw i8, ptr %1, i64 440
  %8 = load double, ptr %7, align 8, !tbaa !125
  %9 = fdiv double 1.000000e+00, %8
  store double %9, ptr %5, align 8, !tbaa !84
  call void @_ZN2cv3MatC1ERKS0_(ptr noundef nonnull align 8 dereferenceable(96) %6, ptr noundef nonnull align 8 dereferenceable(96) %3)
  invoke void @_ZN2cv3ccm15gammaCorrectionERKNS_3MatERKdS1_(ptr dead_on_unwind writable sret(%"class.cv::Mat") align 8 %0, ptr noundef nonnull align 8 dereferenceable(96) %2, ptr noundef nonnull align 8 dereferenceable(8) %5, ptr noundef nonnull %6)
          to label %10 unwind label %11

10:                                               ; preds = %4
  call void @_ZN2cv3MatD1Ev(ptr noundef nonnull align 8 dereferenceable(96) %6) #35
  call void @llvm.lifetime.end.p0(i64 8, ptr nonnull %5) #35
  ret void

11:                                               ; preds = %4
  %12 = landingpad { ptr, i32 }
          cleanup
  call void @_ZN2cv3MatD1Ev(ptr noundef nonnull align 8 dereferenceable(96) %6) #35
  call void @llvm.lifetime.end.p0(i64 8, ptr nonnull %5) #35
  resume { ptr, i32 } %12
}